; Function Attrs: nounwind uwtable
define ptr @l_Lean_Json_getObjValAs_x3f___at___private_Lake_Load_Lean_Elab_0__Lake_fromJsonConfigTrace____x40_Lake_Load_Lean_Elab___hyg_976____spec__1(ptr noundef %0, ptr noundef %1) local_unnamed_addr #0 {
  %3 = tail call ptr @l_Lean_Json_getObjValD(ptr noundef %0, ptr noundef %1) #5
  %4 = tail call ptr @l_UInt64_fromJson_x3f(ptr noundef %3) #5
  %5 = ptrtoint ptr %4 to i64
  %6 = and i64 %5, 1
  %.not.i27 = icmp eq i64 %6, 0
  br i1 %.not.i27, label %10, label %7

7:                                                ; preds = %2
  %8 = lshr i64 %5, 1
  %9 = trunc i64 %8 to i32
  br label %lean_obj_tag.exit

10:                                               ; preds = %2
  %11 = getelementptr i8, ptr %4, i64 4
  %.val.i = load i32, ptr %11, align 4
  %12 = lshr i32 %.val.i, 24
  br label %lean_obj_tag.exit

lean_obj_tag.exit:                                ; preds = %7, %10
  %.0.i = phi i32 [ %9, %7 ], [ %12, %10 ]
  %13 = icmp eq i32 %.0.i, 0
  %.val26 = load i32, ptr %4, align 4, !tbaa !9
  %14 = icmp eq i32 %.val26, 1
  br i1 %13, label %15, label %37

15:                                               ; preds = %lean_obj_tag.exit
  br i1 %14, label %61, label %16

16:                                               ; preds = %15
  %17 = getelementptr inbounds nuw i8, ptr %4, i64 8
  %18 = load ptr, ptr %17, align 8, !tbaa !4
  %19 = ptrtoint ptr %18 to i64
  %20 = and i64 %19, 1
  %.not35 = icmp eq i64 %20, 0
  br i1 %.not35, label %21, label %lean_inc.exit23

21:                                               ; preds = %16
  %.val.i28 = load i32, ptr %18, align 4, !tbaa !9
  %22 = icmp sgt i32 %.val.i28, 0
  br i1 %22, label %23, label %25, !prof !12

23:                                               ; preds = %21
  %24 = add nuw i32 %.val.i28, 1
  store i32 %24, ptr %18, align 4, !tbaa !9
  br label %lean_inc.exit23

25:                                               ; preds = %21
  %.not.i29 = icmp eq i32 %.val.i28, 0
  br i1 %.not.i29, label %lean_inc.exit23, label %26

26:                                               ; preds = %25
  tail call void @lean_inc_ref_cold(ptr noundef nonnull %18) #5
  br label %lean_inc.exit23

lean_inc.exit23:                                  ; preds = %26, %25, %23, %16
  br i1 %.not.i27, label %27, label %lean_dec.exit22

27:                                               ; preds = %lean_inc.exit23
  %28 = load i32, ptr %4, align 4, !tbaa !9
  %29 = icmp sgt i32 %28, 1
  br i1 %29, label %30, label %32, !prof !12

30:                                               ; preds = %27
  %31 = add nsw i32 %28, -1
  store i32 %31, ptr %4, align 4, !tbaa !9
  br label %lean_dec.exit22

32:                                               ; preds = %27
  %.not.i = icmp eq i32 %28, 0
  br i1 %.not.i, label %lean_dec.exit22, label %33

33:                                               ; preds = %32
  tail call void @lean_dec_ref_cold(ptr noundef nonnull %4) #5
  br label %lean_dec.exit22

lean_dec.exit22:                                  ; preds = %33, %32, %30, %lean_inc.exit23
  tail call void @lean_inc_heartbeat() #5
  %34 = tail call noalias ptr @mi_malloc_small(i64 noundef 16) #5
  %35 = icmp eq ptr %34, null
  br i1 %35, label %36, label %.sink.split

36:                                               ; preds = %lean_dec.exit22
  tail call void @lean_internal_panic_out_of_memory() #6
  unreachable

37:                                               ; preds = %lean_obj_tag.exit
  br i1 %14, label %61, label %38

38:                                               ; preds = %37
  %39 = getelementptr inbounds nuw i8, ptr %4, i64 8
  %40 = load ptr, ptr %39, align 8, !tbaa !4
  %41 = ptrtoint ptr %40 to i64
  %42 = and i64 %41, 1
  %.not = icmp eq i64 %42, 0
  br i1 %.not, label %43, label %lean_inc.exit

43:                                               ; preds = %38
  %.val.i30 = load i32, ptr %40, align 4, !tbaa !9
  %44 = icmp sgt i32 %.val.i30, 0
  br i1 %44, label %45, label %47, !prof !12

45:                                               ; preds = %43
  %46 = add nuw i32 %.val.i30, 1
  store i32 %46, ptr %40, align 4, !tbaa !9
  br label %lean_inc.exit

47:                                               ; preds = %43
  %.not.i31 = icmp eq i32 %.val.i30, 0
  br i1 %.not.i31, label %lean_inc.exit, label %48

48:                                               ; preds = %47
  tail call void @lean_inc_ref_cold(ptr noundef nonnull %40) #5
  br label %lean_inc.exit

lean_inc.exit:                                    ; preds = %48, %47, %45, %38
  br i1 %.not.i27, label %49, label %lean_dec.exit

49:                                               ; preds = %lean_inc.exit
  %50 = load i32, ptr %4, align 4, !tbaa !9
  %51 = icmp sgt i32 %50, 1
  br i1 %51, label %52, label %54, !prof !12

52:                                               ; preds = %49
  %53 = add nsw i32 %50, -1
  store i32 %53, ptr %4, align 4, !tbaa !9
  br label %lean_dec.exit

54:                                               ; preds = %49
  %.not.i24 = icmp eq i32 %50, 0
  br i1 %.not.i24, label %lean_dec.exit, label %55

55:                                               ; preds = %54
  tail call void @lean_dec_ref_cold(ptr noundef nonnull %4) #5
  br label %lean_dec.exit

lean_dec.exit:                                    ; preds = %55, %54, %52, %lean_inc.exit
  tail call void @lean_inc_heartbeat() #5
  %56 = tail call noalias ptr @mi_malloc_small(i64 noundef 16) #5
  %57 = icmp eq ptr %56, null
  br i1 %57, label %58, label %.sink.split

58:                                               ; preds = %lean_dec.exit
  tail call void @lean_internal_panic_out_of_memory() #6
  unreachable

.sink.split:                                      ; preds = %lean_dec.exit, %lean_dec.exit22
  %.sink42 = phi ptr [ %34, %lean_dec.exit22 ], [ %56, %lean_dec.exit ]
  %.sink39 = phi i32 [ 65552, %lean_dec.exit22 ], [ 16842768, %lean_dec.exit ]
  %.sink = phi ptr [ %18, %lean_dec.exit22 ], [ %40, %lean_dec.exit ]
  %59 = getelementptr inbounds nuw i8, ptr %.sink42, i64 4
  store i32 1, ptr %.sink42, align 4, !tbaa !9
  store i32 %.sink39, ptr %59, align 4
  %60 = getelementptr inbounds nuw i8, ptr %.sink42, i64 8
  store ptr %.sink, ptr %60, align 8, !tbaa !4
  br label %61

61:                                               ; preds = %.sink.split, %37, %15
  %.1 = phi ptr [ %4, %15 ], [ %4, %37 ], [ %.sink42, %.sink.split ]
  ret ptr %.1
}